target datalayout = "e-m:e-p270:32:32-p271:32:32-p272:64:64-i64:64-i128:128-f80:128-n8:16:32:64-S128"
target triple = "x86_64-pc-linux-gnu"

@__const.proto_register_zbee_zcl_part.ett = private unnamed_addr constant <{ ptr, ptr, ptr, [32 x ptr] }> <{ ptr @ett_zbee_zcl_part, ptr @ett_zbee_zcl_part_fragm_options, ptr @ett_zbee_zcl_part_ack_opts, [32 x ptr] zeroinitializer }>, align 16
@ett_zbee_zcl_part_nack_id_list = internal global [16 x i32] zeroinitializer, align 16
@ett_zbee_zcl_part_attrs_id_list = internal global [16 x i32] zeroinitializer, align 16
@.str.519 = private unnamed_addr constant [21 x i8] c"ZigBee ZCL Partition\00", align 1
@.str.520 = private unnamed_addr constant [14 x i8] c"ZCL Partition\00", align 1
@.str.521 = private unnamed_addr constant [22 x i8] c"zbee_zcl_general.part\00", align 1
@proto_zbee_zcl_part = internal global i32 0, align 4

; Function Attrs: null_pointer_is_valid sspstrong uwtable
define hidden void @proto_register_zbee_zcl_part() #0 {
  %1 = alloca i8, align 1
  %2 = alloca i8, align 1
  %3 = alloca [35 x ptr], align 16
  call void @llvm.lifetime.start.p0(i64 1, ptr %1) #7
  call void @llvm.lifetime.start.p0(i64 1, ptr %2) #7
  call void @llvm.lifetime.start.p0(i64 280, ptr %3) #7
  call void @llvm.memcpy.p0.p0.i64(ptr align 16 %3, ptr align 16 @__const.proto_register_zbee_zcl_part.ett, i64 280, i1 false)
  store i8 0, ptr %1, align 1
  store i8 3, ptr %2, align 1
  br label %4

4:                                                ; preds = %15, %0
  %5 = load i8, ptr %1, align 1
  %6 = zext i8 %5 to i32
  %7 = icmp slt i32 %6, 16
  br i1 %7, label %8, label %20

8:                                                ; preds = %4
  %9 = load i8, ptr %1, align 1
  %10 = zext i8 %9 to i64
  %11 = getelementptr [16 x i32], ptr @ett_zbee_zcl_part_nack_id_list, i64 0, i64 %10
  %12 = load i8, ptr %2, align 1
  %13 = zext i8 %12 to i64
  %14 = getelementptr [35 x ptr], ptr %3, i64 0, i64 %13
  store ptr %11, ptr %14, align 8
  br label %15

15:                                               ; preds = %8
  %16 = load i8, ptr %1, align 1
  %17 = add i8 %16, 1
  store i8 %17, ptr %1, align 1
  %18 = load i8, ptr %2, align 1
  %19 = add i8 %18, 1
  store i8 %19, ptr %2, align 1
  br label %4, !llvm.loop !15

20:                                               ; preds = %4
  store i8 0, ptr %1, align 1
  br label %21

21:                                               ; preds = %32, %20
  %22 = load i8, ptr %1, align 1
  %23 = zext i8 %22 to i32
  %24 = icmp slt i32 %23, 16
  br i1 %24, label %25, label %37

25:                                               ; preds = %21
  %26 = load i8, ptr %1, align 1
  %27 = zext i8 %26 to i64
  %28 = getelementptr [16 x i32], ptr @ett_zbee_zcl_part_attrs_id_list, i64 0, i64 %27
  %29 = load i8, ptr %2, align 1
  %30 = zext i8 %29 to i64
  %31 = getelementptr [35 x ptr], ptr %3, i64 0, i64 %30
  store ptr %28, ptr %31, align 8
  br label %32

32:                                               ; preds = %25
  %33 = load i8, ptr %1, align 1
  %34 = add i8 %33, 1
  store i8 %34, ptr %1, align 1
  %35 = load i8, ptr %2, align 1
  %36 = add i8 %35, 1
  store i8 %36, ptr %2, align 1
  br label %21, !llvm.loop !16

37:                                               ; preds = %21
  %38 = call i32 @proto_register_protocol(ptr noundef @.str.519, ptr noundef @.str.520, ptr noundef @.str.521)
  store i32 %38, ptr @proto_zbee_zcl_part, align 4
  %39 = load i32, ptr @proto_zbee_zcl_part, align 4
  call void @proto_register_field_array(i32 noundef %39, ptr noundef @proto_register_zbee_zcl_part.hf, i32 noundef 15)
  %40 = getelementptr inbounds [35 x ptr], ptr %3, i64 0, i64 0
  call void @proto_register_subtree_array(ptr noundef %40, i32 noundef 35)
  %41 = load i32, ptr @proto_zbee_zcl_part, align 4
  %42 = call ptr @register_dissector(ptr noundef @.str.521, ptr noundef @dissect_zbee_zcl_part, i32 noundef %41)
  call void @llvm.lifetime.end.p0(i64 280, ptr %3) #7
  call void @llvm.lifetime.end.p0(i64 1, ptr %2) #7
  call void @llvm.lifetime.end.p0(i64 1, ptr %1) #7
  ret void
}