; Function Attrs: null_pointer_is_valid sspstrong uwtable
define hidden void @proto_register_zbee_zcl_part() local_unnamed_addr #0 {
  %1 = alloca [35 x ptr], align 16
  call void @llvm.lifetime.start.p0(i64 280, ptr nonnull %1) #8
  call void @llvm.memcpy.p0.p0.i64(ptr noundef nonnull align 16 dereferenceable(280) %1, ptr noundef nonnull align 16 dereferenceable(280) @__const.proto_register_zbee_zcl_part.ett, i64 280, i1 false)
  br label %2

2:                                                ; preds = %0, %2
  %indvars.iv16 = phi i64 [ 0, %0 ], [ %indvars.iv.next17, %2 ]
  %indvars.iv = phi i64 [ 3, %0 ], [ %indvars.iv.next, %2 ]
  %3 = getelementptr [16 x i32], ptr @ett_zbee_zcl_part_nack_id_list, i64 0, i64 %indvars.iv16
  %4 = getelementptr [35 x ptr], ptr %1, i64 0, i64 %indvars.iv
  store ptr %3, ptr %4, align 8
  %indvars.iv.next17 = add nuw nsw i64 %indvars.iv16, 1
  %indvars.iv.next = add nuw nsw i64 %indvars.iv, 1
  %exitcond.not = icmp eq i64 %indvars.iv.next17, 16
  br i1 %exitcond.not, label %.preheader, label %2, !llvm.loop !19

.preheader:                                       ; preds = %2, %.preheader
  %indvars.iv23 = phi i64 [ %indvars.iv.next24, %.preheader ], [ 0, %2 ]
  %indvars.iv21 = phi i64 [ %indvars.iv.next22, %.preheader ], [ 19, %2 ]
  %5 = getelementptr [16 x i32], ptr @ett_zbee_zcl_part_attrs_id_list, i64 0, i64 %indvars.iv23
  %6 = getelementptr [35 x ptr], ptr %1, i64 0, i64 %indvars.iv21
  store ptr %5, ptr %6, align 8
  %indvars.iv.next24 = add nuw nsw i64 %indvars.iv23, 1
  %indvars.iv.next22 = add nuw nsw i64 %indvars.iv21, 1
  %exitcond28.not = icmp eq i64 %indvars.iv.next24, 16
  br i1 %exitcond28.not, label %7, label %.preheader, !llvm.loop !20

7:                                                ; preds = %.preheader
  %8 = tail call i32 @proto_register_protocol(ptr noundef nonnull @.str.519, ptr noundef nonnull @.str.520, ptr noundef nonnull @.str.521)
  store i32 %8, ptr @proto_zbee_zcl_part, align 4
  tail call void @proto_register_field_array(i32 noundef %8, ptr noundef nonnull @proto_register_zbee_zcl_part.hf, i32 noundef 15)
  call void @proto_register_subtree_array(ptr noundef nonnull %1, i32 noundef 35)
  %9 = load i32, ptr @proto_zbee_zcl_part, align 4
  %10 = call ptr @register_dissector(ptr noundef nonnull @.str.521, ptr noundef nonnull @dissect_zbee_zcl_part, i32 noundef %9)
  call void @llvm.lifetime.end.p0(i64 280, ptr nonnull %1) #8
  ret void
}